; Function Attrs: nounwind sspstrong uwtable
define internal noundef i64 @cState_script_safe_set(i64 noundef %0, i64 noundef %1) #0 {
  %3 = tail call ptr @rb_check_typeddata(i64 noundef %0, ptr noundef nonnull @JSON_Generator_State_type) #22
  %4 = and i64 %1, -5
  %5 = icmp ne i64 %4, 0
  %6 = getelementptr inbounds nuw i8, ptr %3, i64 74
  %7 = zext i1 %5 to i8
  store i8 %7, ptr %6, align 2, !tbaa !33
  ret i64 4
}